(dp1
S'cfg'
p2
S"!!python/object/new:utils.collections.AttrDict\ndictitems:\n  BBOX_XFORM_CLIP: !!python/object/apply:numpy.core.multiarray.scalar\n  - &id001 !!python/object/apply:numpy.dtype\n    args: [f8, 0, 1]\n    state: !!python/tuple [3, <, null, null, null, -1, -1, 0]\n  - !!binary |\n    qeISGmmKEEA=\n  CLUSTER: !!python/object/new:utils.collections.AttrDict\n    dictitems: {ON_CLUSTER: true}\n  DATA_LOADER: !!python/object/new:utils.collections.AttrDict\n    dictitems: {NUM_THREADS: 4}\n  DEDUP_BOXES: 0.0625\n  EPS: 1.0e-14\n  EXPECTED_RESULTS: []\n  EXPECTED_RESULTS_ATOL: 0.005\n  EXPECTED_RESULTS_EMAIL: ''\n  EXPECTED_RESULTS_RTOL: 0.1\n  FAST_RCNN: !!python/object/new:utils.collections.AttrDict\n    dictitems: {MLP_HEAD_DIM: 1024, ROI_BOX_HEAD: '', ROI_XFORM_METHOD: RoIPoolF,\n      ROI_XFORM_RESOLUTION: 14, ROI_XFORM_SAMPLING_RATIO: 0}\n  FPN: !!python/object/new:utils.collections.AttrDict\n    dictitems:\n      COARSEST_STRIDE: 32\n      DIM: 256\n      EXTRA_CONV_LEVELS: false\n      FPN_ON: false\n      MULTILEVEL_ROIS: false\n      MULTILEVEL_RPN: false\n      ROI_CANONICAL_LEVEL: 4\n      ROI_CANONICAL_SCALE: 224\n      ROI_MAX_LEVEL: 5\n      ROI_MIN_LEVEL: 2\n      RPN_ANCHOR_START_SIZE: 32\n      RPN_ASPECT_RATIOS: !!python/tuple [0.5, 1, 2]\n      RPN_MAX_LEVEL: 6\n      RPN_MIN_LEVEL: 2\n      ZERO_INIT_LATERAL: false\n  KRCNN: !!python/object/new:utils.collections.AttrDict\n    dictitems: {CONV_HEAD_DIM: 256, CONV_HEAD_KERNEL: 3, CONV_INIT: GaussianFill,\n      DECONV_DIM: 256, DECONV_KERNEL: 4, DILATION: 1, HEATMAP_SIZE: -1, INFERENCE_MIN_SIZE: 0,\n      KEYPOINT_CONFIDENCE: bbox, LOSS_WEIGHT: 1.0, MIN_KEYPOINT_COUNT_FOR_VALID_MINIBATCH: 20,\n      NMS_OKS: false, NORMALIZE_BY_VISIBLE_KEYPOINTS: true, NUM_KEYPOINTS: -1, NUM_STACKED_CONVS: 8,\n      ROI_KEYPOINTS_HEAD: '', ROI_XFORM_METHOD: RoIAlign, ROI_XFORM_RESOLUTION: 7,\n      ROI_XFORM_SAMPLING_RATIO: 0, UP_SCALE: -1, USE_DECONV: false, USE_DECONV_OUTPUT: false}\n  MATLAB: matlab\n  MEMONGER: true\n  MEMONGER_SHARE_ACTIVATIONS: false\n  MODEL: !!python/object/new:utils.collections.AttrDict\n    dictitems:\n      BBOX_REG_WEIGHTS: !!python/tuple [10.0, 10.0, 5.0, 5.0]\n      CLS_AGNOSTIC_BBOX_REG: false\n      CONV_BODY: ResNet.add_ResNet50_conv4_body\n      EXECUTION_TYPE: dag\n      FASTER_RCNN: false\n      KEYPOINTS_ON: false\n      MASK_ON: false\n      NUM_CLASSES: 81\n      RPN_ONLY: true\n      TYPE: rpn\n  MRCNN: !!python/object/new:utils.collections.AttrDict\n    dictitems: {CLS_SPECIFIC_MASK: true, CONV_INIT: GaussianFill, DILATION: 2, DIM_REDUCED: 256,\n      RESOLUTION: 14, ROI_MASK_HEAD: '', ROI_XFORM_METHOD: RoIAlign, ROI_XFORM_RESOLUTION: 7,\n      ROI_XFORM_SAMPLING_RATIO: 0, THRESH_BINARIZE: 0.5, UPSAMPLE_RATIO: 1, USE_FC_OUTPUT: false,\n      WEIGHT_LOSS_MASK: 1.0}\n  NUM_GPUS: 8\n  OUTPUT_DIR: ./output\n  PIXEL_MEANS: !!python/object/apply:numpy.core.multiarray._reconstruct\n    args:\n    - !!python/name:numpy.ndarray ''\n    - !!python/tuple [0]\n    - b\n    state: !!python/tuple\n    - 1\n    - !!python/tuple [1, 1, 3]\n    - *id001\n    - false\n    - !!binary |\n      0LNZ9bm+WUB/arx0k/xcQK+UZYhjsV5A\n  RESNETS: !!python/object/new:utils.collections.AttrDict\n    dictitems: {NUM_GROUPS: 1, RES5_DILATION: 1, STRIDE_1X1: true, TRANS_FUNC: bottleneck_transformation,\n      WIDTH_PER_GROUP: 64}\n  RETINANET: !!python/object/new:utils.collections.AttrDict\n    dictitems:\n      ANCHOR_SCALE: 4\n      ASPECT_RATIOS: !!python/tuple [0.5, 1.0, 2.0]\n      BBOX_REG_BETA: 0.11\n      BBOX_REG_WEIGHT: 1.0\n      CLASS_SPECIFIC_BBOX: false\n      INFERENCE_TH: 0.05\n      LOSS_ALPHA: 0.25\n      LOSS_GAMMA: 2.0\n      NEGATIVE_OVERLAP: 0.4\n      NUM_CONVS: 4\n      POSITIVE_OVERLAP: 0.5\n      PRE_NMS_TOP_N: 1000\n      PRIOR_PROB: 0.01\n      RETINANET_ON: false\n      SCALES_PER_OCTAVE: 3\n      SHARE_CLS_BBOX_TOWER: false\n      SOFTMAX: false\n  RFCN: !!python/object/new:utils.collections.AttrDict\n    dictitems: {PS_GRID_SIZE: 3}\n  RNG_SEED: 3\n  ROOT_DIR: /mnt/vol/gfsai-bistro-east/ai-group/bistro/gpu/ilijar/20171221/RPN_RN50-C4_1x_configs/12_2017_baselines/rpn_R-50-C4_1x.yaml.08_00_43.njH5oD9L\n  RPN: !!python/object/new:utils.collections.AttrDict\n    dictitems:\n      ASPECT_RATIOS: !!python/tuple [0.5, 1, 2]\n      RPN_ON: true\n      SIZES: !!python/tuple [32, 64, 128, 256, 512]\n      STRIDE: 16\n  SOLVER: !!python/object/new:utils.collections.AttrDict\n    dictitems:\n      BASE_LR: 0.02\n      GAMMA: 0.1\n      LOG_LR_CHANGE_THRESHOLD: 1.1\n      LRS: []\n      LR_POLICY: steps_with_decay\n      MAX_ITER: 90000\n      MOMENTUM: 0.9\n      SCALE_MOMENTUM: true\n      SCALE_MOMENTUM_THRESHOLD: 1.1\n      STEPS: [0, 60000, 80000]\n      STEP_SIZE: 30000\n      WARM_UP_FACTOR: 0.3333333333333333\n      WARM_UP_ITERS: 500\n      WARM_UP_METHOD: !!python/unicode 'linear'\n      WEIGHT_DECAY: 0.0001\n  TEST: !!python/object/new:utils.collections.AttrDict\n    dictitems:\n      BBOX_AUG: !!python/object/new:utils.collections.AttrDict\n        dictitems:\n          AREA_TH_HI: 32400\n          AREA_TH_LO: 2500\n          ASPECT_RATIOS: !!python/tuple []\n          ASPECT_RATIO_H_FLIP: false\n          COORD_HEUR: UNION\n          ENABLED: false\n          H_FLIP: false\n          MAX_SIZE: 4000\n          SCALES: !!python/tuple []\n          SCALE_H_FLIP: false\n          SCALE_SIZE_DEP: false\n          SCORE_HEUR: UNION\n      BBOX_REG: true\n      BBOX_VOTE: !!python/object/new:utils.collections.AttrDict\n        dictitems: {ENABLED: false, SCORING_METHOD: ID, SCORING_METHOD_BETA: 1.0,\n          VOTE_TH: 0.8}\n      COMPETITION_MODE: true\n      DATASET: coco_2014_valminusminival\n      DATASETS: !!python/tuple [coco_2014_minival, coco_2014_train, coco_2014_valminusminival]\n      DETECTIONS_PER_IM: 100\n      FORCE_JSON_DATASET_EVAL: false\n      KPS_AUG: !!python/object/new:utils.collections.AttrDict\n        dictitems:\n          AREA_TH: 32400\n          ASPECT_RATIOS: !!python/tuple []\n          ASPECT_RATIO_H_FLIP: false\n          ENABLED: false\n          HEUR: HM_AVG\n          H_FLIP: false\n          MAX_SIZE: 4000\n          SCALES: !!python/tuple []\n          SCALE_H_FLIP: false\n          SCALE_SIZE_DEP: false\n      MASK_AUG: !!python/object/new:utils.collections.AttrDict\n        dictitems:\n          AREA_TH: 32400\n          ASPECT_RATIOS: !!python/tuple []\n          ASPECT_RATIO_H_FLIP: false\n          ENABLED: false\n          HEUR: SOFT_AVG\n          H_FLIP: false\n          MAX_SIZE: 4000\n          SCALES: !!python/tuple []\n          SCALE_H_FLIP: false\n          SCALE_SIZE_DEP: false\n      MAX_SIZE: 1333\n      NMS: 0.3\n      NUM_TEST_IMAGES: 5000\n      PRECOMPUTED_PROPOSALS: false\n      PROPOSAL_FILE: ''\n      PROPOSAL_FILES: !!python/tuple []\n      PROPOSAL_LIMIT: 2000\n      RPN_MIN_SIZE: 0\n      RPN_NMS_THRESH: 0.7\n      RPN_POST_NMS_TOP_N: 2000\n      RPN_PRE_NMS_TOP_N: 12000\n      SCALES: !!python/tuple [800]\n      SCORE_THRESH: 0.05\n      SOFT_NMS: !!python/object/new:utils.collections.AttrDict\n        dictitems: {ENABLED: false, METHOD: linear, SIGMA: 0.5}\n      WEIGHTS: !!python/unicode './output/train/coco_2014_train:coco_2014_valminusminival/rpn/model_final.pkl'\n  TRAIN: !!python/object/new:utils.collections.AttrDict\n    dictitems:\n      ASPECT_GROUPING: true\n      AUTO_RESUME: true\n      BATCH_SIZE_PER_IM: 64\n      BBOX_THRESH: 0.5\n      BG_THRESH_HI: 0.5\n      BG_THRESH_LO: 0.0\n      CROWD_FILTER_THRESH: 0.7\n      DATASET: coco_2014_train:coco_2014_valminusminival\n      FG_FRACTION: 0.25\n      FG_THRESH: 0.5\n      FREEZE_CONV_BODY: false\n      GT_MIN_AREA: -1\n      IMS_PER_BATCH: 2\n      MAX_SIZE: 1333\n      PROPOSAL_FILE: ''\n      RPN_BATCH_SIZE_PER_IM: 256\n      RPN_FG_FRACTION: 0.5\n      RPN_MIN_SIZE: 0\n      RPN_NEGATIVE_OVERLAP: 0.3\n      RPN_NMS_THRESH: 0.7\n      RPN_POSITIVE_OVERLAP: 0.7\n      RPN_POST_NMS_TOP_N: 2000\n      RPN_PRE_NMS_TOP_N: 12000\n      RPN_STRADDLE_THRESH: 0\n      SCALES: !!python/tuple [800]\n      SNAPSHOT_ITERS: 20000\n      USE_FLIPPED: true\n      WEIGHTS: /mnt/vol/gfsai-east/ai-group/users/kaiminghe/data/imagenet_models/ResNet50_weights.pkl\n  USE_NCCL: false\n  VIS: false\n  VIS_TH: 0.9\n"
p3
s.